target datalayout = "e-m:e-p270:32:32-p271:32:32-p272:64:64-i64:64-i128:128-f80:128-n8:16:32:64-S128"
target triple = "x86_64-pc-linux-gnu"

%struct._zend_executor_globals = type { %struct._zval_struct, %struct._zval_struct, [32 x ptr], ptr, ptr, %struct._zend_array, %struct._zend_array, ptr, i32, i32, ptr, ptr, ptr, ptr, ptr, ptr, i64, ptr, ptr, i32, i32, i64, i32, i32, i32, i8, i8, %struct.zend_atomic_bool_s, %struct.zend_atomic_bool_s, ptr, i64, ptr, ptr, %struct._zend_array, %struct._zend_array, i32, i8, %struct._zval_struct, %struct._zval_struct, %struct._zend_stack, %struct._zend_stack, %struct._zend_stack, ptr, i32, i32, i64, ptr, ptr, ptr, %struct._zend_objects_store, ptr, ptr, ptr, [3 x %struct._zend_op], ptr, i8, i8, i64, i32, i32, ptr, [16 x %struct._HashTableIterator], ptr, %union._zend_function, %struct._zend_op, %struct._zend_array, i64, %struct.zend_get_gc_buffer, ptr, ptr, ptr, i64, i8, i32, ptr, ptr, i64, %struct._zend_call_stack, i64, i64, [6 x ptr] }
%struct.zend_atomic_bool_s = type { i8 }
%struct._zval_struct = type { %union._zend_value, %union.anon, %union.anon.2 }
%union._zend_value = type { i64 }
%union.anon = type { i32 }
%union.anon.2 = type { i32 }
%struct._zend_stack = type { i32, i32, i32, ptr }
%struct._zend_objects_store = type { ptr, i32, i32, i32 }
%struct._HashTableIterator = type { ptr, i32, i32 }
%union._zend_function = type { %struct._zend_op_array }
%struct._zend_op_array = type { i8, [3 x i8], i32, ptr, ptr, ptr, i32, i32, ptr, ptr, ptr, ptr, i32, i32, i32, i32, ptr, ptr, ptr, ptr, ptr, i32, i32, ptr, ptr, ptr, i32, i32, i32, i32, ptr, ptr, [6 x ptr] }
%struct._zend_op = type { ptr, %union._znode_op, %union._znode_op, %union._znode_op, i32, i32, i8, i8, i8, i8 }
%union._znode_op = type { i32 }
%struct._zend_array = type { %struct._zend_refcounted_h, %union.anon.4, i32, %union.anon.6, i32, i32, i32, i32, i64, ptr }
%struct._zend_refcounted_h = type { i32, %union.anon.3 }
%union.anon.3 = type { i32 }
%union.anon.4 = type { i32 }
%union.anon.6 = type { ptr }
%struct.zend_get_gc_buffer = type { ptr, ptr, ptr }
%struct._zend_call_stack = type { ptr, i64 }
%struct._spl_fixedarray_object = type { %struct._spl_fixedarray, ptr, %struct._zend_object }
%struct._spl_fixedarray = type { i64, ptr, i64 }
%struct._zend_object = type { %struct._zend_refcounted_h, i32, ptr, ptr, ptr, [1 x %struct._zval_struct] }
%struct._spl_fixedarray_it = type { %struct._zend_object_iterator, i64 }
%struct._zend_object_iterator = type { %struct._zend_object, %struct._zval_struct, ptr, i64 }

@executor_globals = external global %struct._zend_executor_globals, align 8
@.str.9 = private unnamed_addr constant [44 x i8] c"[] operator not supported for SplFixedArray\00", align 1
@spl_ce_OutOfBoundsException = external global ptr, align 8
@.str.10 = private unnamed_addr constant [30 x i8] c"Index invalid or out of range\00", align 1

; Function Attrs: nounwind uwtable
define internal ptr @spl_fixedarray_object_read_dimension_helper(ptr noundef %0, ptr noundef %1) #0 {
  %3 = alloca ptr, align 8
  %4 = alloca ptr, align 8
  %5 = alloca ptr, align 8
  %6 = alloca i64, align 8
  store ptr %0, ptr %4, align 8
  store ptr %1, ptr %5, align 8
  %7 = load ptr, ptr %5, align 8
  %8 = icmp ne ptr %7, null
  br i1 %8, label %10, label %9

9:                                                ; preds = %2
  call void (ptr, ptr, ...) @zend_throw_error(ptr noundef null, ptr noundef @.str.9)
  store ptr null, ptr %3, align 8
  br label %36

10:                                               ; preds = %2
  %11 = load ptr, ptr %5, align 8
  %12 = call i64 @spl_offset_convert_to_long(ptr noundef %11)
  store i64 %12, ptr %6, align 8
  %13 = load ptr, ptr getelementptr inbounds (%struct._zend_executor_globals, ptr @executor_globals, i32 0, i32 50), align 8
  %14 = icmp ne ptr %13, null
  br i1 %14, label %15, label %16

15:                                               ; preds = %10
  store ptr null, ptr %3, align 8
  br label %36

16:                                               ; preds = %10
  %17 = load i64, ptr %6, align 8
  %18 = icmp slt i64 %17, 0
  br i1 %18, label %26, label %19

19:                                               ; preds = %16
  %20 = load i64, ptr %6, align 8
  %21 = load ptr, ptr %4, align 8
  %22 = getelementptr inbounds %struct._spl_fixedarray_object, ptr %21, i32 0, i32 0
  %23 = getelementptr inbounds %struct._spl_fixedarray, ptr %22, i32 0, i32 0
  %24 = load i64, ptr %23, align 8
  %25 = icmp sge i64 %20, %24
  br i1 %25, label %26, label %29

26:                                               ; preds = %19, %16
  %27 = load ptr, ptr @spl_ce_OutOfBoundsException, align 8
  %28 = call ptr @zend_throw_exception(ptr noundef %27, ptr noundef @.str.10, i64 noundef 0)
  store ptr null, ptr %3, align 8
  br label %36

29:                                               ; preds = %19
  %30 = load ptr, ptr %4, align 8
  %31 = getelementptr inbounds %struct._spl_fixedarray_object, ptr %30, i32 0, i32 0
  %32 = getelementptr inbounds %struct._spl_fixedarray, ptr %31, i32 0, i32 1
  %33 = load ptr, ptr %32, align 8
  %34 = load i64, ptr %6, align 8
  %35 = getelementptr inbounds %struct._zval_struct, ptr %33, i64 %34
  store ptr %35, ptr %3, align 8
  br label %36

36:                                               ; preds = %29, %26, %15, %9
  %37 = load ptr, ptr %3, align 8
  ret ptr %37
}

; Function Attrs: nounwind uwtable
define internal ptr @spl_fixed_array_from_obj(ptr noundef %0) #0 {
  %2 = alloca ptr, align 8
  store ptr %0, ptr %2, align 8
  %3 = load ptr, ptr %2, align 8
  %4 = getelementptr inbounds i8, ptr %3, i64 -32
  ret ptr %4
}

; Function Attrs: nounwind uwtable
define internal ptr @spl_fixedarray_it_get_current_data(ptr noundef %0) #0 {
  %2 = alloca ptr, align 8
  %3 = alloca %struct._zval_struct, align 8
  %4 = alloca ptr, align 8
  %5 = alloca ptr, align 8
  %6 = alloca ptr, align 8
  %7 = alloca ptr, align 8
  store ptr %0, ptr %2, align 8
  %8 = load ptr, ptr %2, align 8
  store ptr %8, ptr %5, align 8
  %9 = load ptr, ptr %2, align 8
  %10 = getelementptr inbounds %struct._zend_object_iterator, ptr %9, i32 0, i32 1
  %11 = getelementptr inbounds %struct._zval_struct, ptr %10, i32 0, i32 0
  %12 = load ptr, ptr %11, align 8
  %13 = call ptr @spl_fixed_array_from_obj(ptr noundef %12)
  store ptr %13, ptr %6, align 8
  br label %14

14:                                               ; preds = %1
  store ptr %3, ptr %7, align 8
  %15 = load ptr, ptr %5, align 8
  %16 = getelementptr inbounds %struct._spl_fixedarray_it, ptr %15, i32 0, i32 1
  %17 = load i64, ptr %16, align 8
  %18 = load ptr, ptr %7, align 8
  %19 = getelementptr inbounds %struct._zval_struct, ptr %18, i32 0, i32 0
  store i64 %17, ptr %19, align 8
  %20 = load ptr, ptr %7, align 8
  %21 = getelementptr inbounds %struct._zval_struct, ptr %20, i32 0, i32 1
  store i32 4, ptr %21, align 8
  br label %22

22:                                               ; preds = %14
  %23 = load ptr, ptr %6, align 8
  %24 = call ptr @spl_fixedarray_object_read_dimension_helper(ptr noundef %23, ptr noundef %3)
  store ptr %24, ptr %4, align 8
  %25 = load ptr, ptr %4, align 8
  %26 = icmp eq ptr %25, null
  br i1 %26, label %27, label %28

27:                                               ; preds = %22
  store ptr @executor_globals, ptr %4, align 8
  br label %28

28:                                               ; preds = %27, %22
  %29 = load ptr, ptr %4, align 8
  ret ptr %29
}