; Function Attrs: nounwind uwtable
define internal nonnull ptr @spl_fixedarray_it_get_current_data(ptr nocapture noundef readonly %0) #0 {
  %2 = alloca %struct._zval_struct, align 8
  %3 = getelementptr inbounds i8, ptr %0, i64 56
  %4 = load ptr, ptr %3, align 8
  %5 = getelementptr inbounds i8, ptr %4, i64 -32
  %6 = getelementptr inbounds i8, ptr %0, i64 88
  %7 = load i64, ptr %6, align 8
  store i64 %7, ptr %2, align 8
  %8 = getelementptr inbounds i8, ptr %2, i64 8
  store i32 4, ptr %8, align 8
  %9 = call fastcc i64 @spl_offset_convert_to_long(ptr noundef nonnull %2)
  %10 = load ptr, ptr getelementptr inbounds (%struct._zend_executor_globals, ptr @executor_globals, i64 0, i32 50), align 8
  %.not9.i = icmp eq ptr %10, null
  br i1 %.not9.i, label %11, label %spl_fixedarray_object_read_dimension_helper.exit

11:                                               ; preds = %1
  %12 = icmp slt i64 %9, 0
  br i1 %12, label %15, label %13

13:                                               ; preds = %11
  %14 = load i64, ptr %5, align 8
  %.not10.i = icmp slt i64 %9, %14
  br i1 %.not10.i, label %18, label %15

15:                                               ; preds = %13, %11
  %16 = load ptr, ptr @spl_ce_OutOfBoundsException, align 8
  %17 = call ptr @zend_throw_exception(ptr noundef %16, ptr noundef nonnull @.str.10, i64 noundef 0) #12
  br label %spl_fixedarray_object_read_dimension_helper.exit

18:                                               ; preds = %13
  %19 = getelementptr inbounds i8, ptr %4, i64 -24
  %20 = load ptr, ptr %19, align 8
  %21 = getelementptr inbounds %struct._zval_struct, ptr %20, i64 %9
  br label %spl_fixedarray_object_read_dimension_helper.exit

spl_fixedarray_object_read_dimension_helper.exit: ; preds = %1, %15, %18
  %.0.i = phi ptr [ null, %15 ], [ %21, %18 ], [ null, %1 ]
  %22 = icmp eq ptr %.0.i, null
  %spec.store.select = select i1 %22, ptr @executor_globals, ptr %.0.i
  ret ptr %spec.store.select
}